target datalayout = "e-m:e-p270:32:32-p271:32:32-p272:64:64-i64:64-i128:128-f80:128-n8:16:32:64-S128"
target triple = "x86_64-pc-linux-gnu"

%struct.VVCLocalContext = type { i8, i8, i8, i8, i32, i32, [4 x i8], [3276800 x i8], [16384 x i16], [16384 x i16], [16384 x i16], [32768 x i8], [332800 x i8], [368640 x i8], [368640 x i8], [17424 x i32], %struct.anon, %struct.anon.0, ptr, [2 x [1024 x %struct.ReconstructedArea]], [2 x i32], %struct.NeighbourAvailable, i32, ptr, ptr, ptr, ptr }
%struct.anon = type { i32, i8, i32, i32, i32, [3 x i32], i32, i32, i32, i32, i32, i32 }
%struct.anon.0 = type { i32, i32, i32 }
%struct.ReconstructedArea = type { i32, i32, i32, i32 }
%struct.NeighbourAvailable = type { i32, i32, i32, i32, i32 }
%struct.VVCFrameContext = type { ptr, [17 x %struct.VVCFrame], ptr, ptr, %struct.VVCFrameParamSets, ptr, i32, i32, ptr, %struct.VVCDSPContext, %struct.VideoDSPContext, ptr, i64, ptr, ptr, ptr, ptr, %struct.anon.1 }
%struct.VVCFrame = type { ptr, ptr, ptr, ptr, ptr, ptr, i32, i32, i32, %struct.VVCWindow, i32, i32, ptr, ptr, i16, i8, ptr }
%struct.VVCWindow = type { i16, i16, i16, i16 }
%struct.VVCFrameParamSets = type { ptr, ptr, %struct.VVCPH, [8 x ptr], %struct.VVCLMCS, ptr }
%struct.VVCPH = type { ptr, ptr, i32, i32, i8, [3 x i16], i8, [3 x i16], %struct.PredWeightTable }
%struct.PredWeightTable = type { [2 x i8], [2 x i8], [2 x [2 x [15 x i8]]], [2 x [3 x [15 x i16]]], [2 x [3 x [15 x i16]]] }
%struct.VVCLMCS = type { i8, i8, %union.anon, %union.anon, [17 x i16], [16 x i16] }
%union.anon = type { [4096 x i16] }
%struct.VVCDSPContext = type { %struct.VVCInterDSPContext, %struct.VVCIntraDSPContext, %struct.VVCItxDSPContext, %struct.VVCLMCSDSPContext, %struct.VVCLFDSPContext, %struct.VVCSAODSPContext, %struct.VVCALFDSPContext }
%struct.VVCInterDSPContext = type { [2 x [7 x [2 x [2 x ptr]]]], [2 x [7 x [2 x [2 x ptr]]]], [2 x [7 x [2 x [2 x ptr]]]], [2 x [7 x ptr]], [2 x [7 x ptr]], [2 x [7 x ptr]], ptr, ptr, ptr, ptr, ptr, ptr, ptr, ptr, ptr, ptr, ptr, [2 x [2 x ptr]] }
%struct.VVCIntraDSPContext = type { ptr, ptr, ptr, ptr, ptr, ptr, ptr, ptr, ptr, ptr }
%struct.VVCItxDSPContext = type { ptr, ptr, [3 x [6 x ptr]], ptr, ptr }
%struct.VVCLMCSDSPContext = type { ptr }
%struct.VVCLFDSPContext = type { [2 x ptr], [2 x ptr], [2 x ptr] }
%struct.VVCSAODSPContext = type { [9 x ptr], [9 x ptr], [2 x ptr] }
%struct.VVCALFDSPContext = type { [2 x ptr], ptr, ptr, ptr }
%struct.VideoDSPContext = type { ptr, ptr }
%struct.anon.1 = type { ptr, ptr, ptr, ptr, [2 x ptr], [2 x ptr], [2 x ptr], [2 x ptr], [2 x ptr], [3 x ptr], ptr, ptr, [2 x ptr], ptr, ptr, [2 x ptr], ptr, ptr, ptr, [2 x ptr], ptr, [3 x ptr], ptr, [2 x ptr], [2 x ptr], [2 x ptr], [2 x [3 x ptr]], [2 x ptr], [2 x ptr], [3 x ptr], [3 x ptr], [3 x [2 x ptr]], [3 x [2 x ptr]], ptr, ptr, ptr, [3 x ptr], %struct.anon.2 }
%struct.anon.2 = type { i32, i32, i32, i32, i32, i32, i32, i32, i32, i32, i32, i32 }
%struct.VVCSPS = type { ptr, [3 x i8], [3 x i8], i32, i8, i32, i8, i8, i8, i16, i8, i8, i8, i8, i8, i8, i8, i8, [5 x i32], i8, i8, [3 x [111 x i8]] }
%struct.H266RawNALUnitHeader = type { i8, i8, i8, i8 }
%struct.H266RefPicListStruct = type { i8, i8, [29 x i8], [29 x i8], [29 x i8], [29 x i8], [29 x i8], [29 x i8] }
%struct.AVFrame = type { [8 x ptr], [8 x i32], ptr, i32, i32, i32, i32, i32, %struct.AVRational, i64, i64, %struct.AVRational, i32, ptr, i32, i32, [8 x ptr], ptr, i32, ptr, i32, i32, i32, i32, i32, i32, i32, i64, ptr, i32, ptr, ptr, i64, i64, i64, i64, ptr, %struct.AVChannelLayout, i64 }
%struct.AVRational = type { i32, i32 }
%struct.AVChannelLayout = type { i32, i32, %union.anon.3, ptr }
%union.anon.3 = type { i64 }
%struct.VVCPPS = type { ptr, [3 x i8], [6 x [3 x i8]], i16, i16, [1000 x i16], [1000 x i16], i16, i16, i16, i16, i32, i16, i16, i16, i16, ptr, ptr, ptr, ptr, ptr, i16, i16, i16, i16, i16, [1000 x i16], [1000 x i16], [1000 x i16], [1000 x i16] }
%struct.SliceContext = type { i32, %struct.VVCSH, ptr, i32, ptr, ptr }
%struct.VVCSH = type { ptr, i32, ptr, %struct.PredWeightTable, [2 x i8], i8, %struct.DBParams, [2 x i8], [2 x i8], [2 x i8], [2 x i8], i8, i8, [4050 x i32] }
%struct.DBParams = type { [3 x i8], [3 x i8] }
%struct.H266RawSliceHeader = type { %struct.H266RawNALUnitHeader, i8, %struct.H266RawPictureHeader, i16, i16, [16 x i8], i8, i8, i8, i8, i8, [8 x i8], i8, i8, i8, i8, i8, i8, i8, i8, i8, %struct.H266RefPicLists, i8, [2 x i8], i8, i8, i8, %struct.H266RawPredWeightTable, i8, i8, i8, i8, i8, i8, i8, i8, i8, i8, i8, i8, i8, i8, i8, i8, i8, i8, i8, i8, i16, [256 x i8], i8, [4050 x i32], i16, i32, [2 x i8] }
%struct.H266RawPictureHeader = type { i8, i8, i8, i8, i8, i8, i16, i8, [16 x i8], i8, i8, i8, i8, [8 x i8], i8, i8, i8, i8, i8, i8, i8, i8, i8, i8, i8, i8, i8, i8, [3 x i16], i8, [3 x i16], i8, %struct.H266RefPicLists, i8, i8, i8, i8, i8, i8, i8, i8, i8, i8, i8, i8, i8, i8, i8, i8, i8, i8, i8, i8, i8, i8, i8, i8, i8, %struct.H266RawPredWeightTable, i8, i8, i8, i8, i8, i8, i8, i8, i8, i8, i8, i8, i8, [256 x i8] }
%struct.H266RefPicLists = type { [2 x i8], [2 x i8], [2 x %struct.H266RefPicListStruct], [2 x [29 x i16]], [2 x [29 x i8]], [2 x [29 x i16]] }
%struct.H266RawPredWeightTable = type { i8, i8, i8, [15 x i8], [15 x i8], [15 x i8], [15 x i8], [15 x [2 x i8]], [15 x [2 x i16]], i8, [15 x i8], [15 x i8], [15 x i8], [15 x i8], [15 x [2 x i8]], [15 x [2 x i16]], i8, i8 }

; Function Attrs: nounwind uwtable
define void @ff_vvc_lmcs_filter(ptr noundef %0, i32 noundef %1, i32 noundef %2) #0 {
  %4 = alloca ptr, align 8
  %5 = alloca i32, align 4
  %6 = alloca i32, align 4
  %7 = alloca ptr, align 8
  %8 = alloca ptr, align 8
  %9 = alloca i32, align 4
  %10 = alloca i32, align 4
  %11 = alloca i32, align 4
  %12 = alloca ptr, align 8
  store ptr %0, ptr %4, align 8, !tbaa !4
  store i32 %1, ptr %5, align 4, !tbaa !9
  store i32 %2, ptr %6, align 4, !tbaa !9
  call void @llvm.lifetime.start.p0(i64 8, ptr %7) #7
  %13 = load ptr, ptr %4, align 8, !tbaa !4
  %14 = getelementptr inbounds nuw %struct.VVCLocalContext, ptr %13, i32 0, i32 23
  %15 = load ptr, ptr %14, align 16, !tbaa !106
  store ptr %15, ptr %7, align 8, !tbaa !201
  call void @llvm.lifetime.start.p0(i64 8, ptr %8) #7
  %16 = load ptr, ptr %4, align 8, !tbaa !4
  %17 = getelementptr inbounds nuw %struct.VVCLocalContext, ptr %16, i32 0, i32 24
  %18 = load ptr, ptr %17, align 8, !tbaa !11
  store ptr %18, ptr %8, align 8, !tbaa !21
  call void @llvm.lifetime.start.p0(i64 4, ptr %9) #7
  %19 = load ptr, ptr %8, align 8, !tbaa !21
  %20 = getelementptr inbounds nuw %struct.VVCFrameContext, ptr %19, i32 0, i32 4
  %21 = getelementptr inbounds nuw %struct.VVCFrameParamSets, ptr %20, i32 0, i32 0
  %22 = load ptr, ptr %21, align 8, !tbaa !22
  %23 = getelementptr inbounds nuw %struct.VVCSPS, ptr %22, i32 0, i32 9
  %24 = load i16, ptr %23, align 8, !tbaa !58
  %25 = zext i16 %24 to i32
  store i32 %25, ptr %9, align 4, !tbaa !9
  call void @llvm.lifetime.start.p0(i64 4, ptr %10) #7
  %26 = load ptr, ptr %8, align 8, !tbaa !21
  %27 = getelementptr inbounds nuw %struct.VVCFrameContext, ptr %26, i32 0, i32 4
  %28 = getelementptr inbounds nuw %struct.VVCFrameParamSets, ptr %27, i32 0, i32 1
  %29 = load ptr, ptr %28, align 8, !tbaa !79
  %30 = getelementptr inbounds nuw %struct.VVCPPS, ptr %29, i32 0, i32 3
  %31 = load i16, ptr %30, align 2, !tbaa !80
  %32 = zext i16 %31 to i32
  %33 = load i32, ptr %5, align 4, !tbaa !9
  %34 = sub nsw i32 %32, %33
  %35 = load i32, ptr %9, align 4, !tbaa !9
  %36 = icmp sgt i32 %34, %35
  br i1 %36, label %37, label %39

37:                                               ; preds = %3
  %38 = load i32, ptr %9, align 4, !tbaa !9
  br label %49

39:                                               ; preds = %3
  %40 = load ptr, ptr %8, align 8, !tbaa !21
  %41 = getelementptr inbounds nuw %struct.VVCFrameContext, ptr %40, i32 0, i32 4
  %42 = getelementptr inbounds nuw %struct.VVCFrameParamSets, ptr %41, i32 0, i32 1
  %43 = load ptr, ptr %42, align 8, !tbaa !79
  %44 = getelementptr inbounds nuw %struct.VVCPPS, ptr %43, i32 0, i32 3
  %45 = load i16, ptr %44, align 2, !tbaa !80
  %46 = zext i16 %45 to i32
  %47 = load i32, ptr %5, align 4, !tbaa !9
  %48 = sub nsw i32 %46, %47
  br label %49

49:                                               ; preds = %39, %37
  %50 = phi i32 [ %38, %37 ], [ %48, %39 ]
  store i32 %50, ptr %10, align 4, !tbaa !9
  call void @llvm.lifetime.start.p0(i64 4, ptr %11) #7
  %51 = load ptr, ptr %8, align 8, !tbaa !21
  %52 = getelementptr inbounds nuw %struct.VVCFrameContext, ptr %51, i32 0, i32 4
  %53 = getelementptr inbounds nuw %struct.VVCFrameParamSets, ptr %52, i32 0, i32 1
  %54 = load ptr, ptr %53, align 8, !tbaa !79
  %55 = getelementptr inbounds nuw %struct.VVCPPS, ptr %54, i32 0, i32 4
  %56 = load i16, ptr %55, align 8, !tbaa !83
  %57 = zext i16 %56 to i32
  %58 = load i32, ptr %6, align 4, !tbaa !9
  %59 = sub nsw i32 %57, %58
  %60 = load i32, ptr %9, align 4, !tbaa !9
  %61 = icmp sgt i32 %59, %60
  br i1 %61, label %62, label %64

62:                                               ; preds = %49
  %63 = load i32, ptr %9, align 4, !tbaa !9
  br label %74

64:                                               ; preds = %49
  %65 = load ptr, ptr %8, align 8, !tbaa !21
  %66 = getelementptr inbounds nuw %struct.VVCFrameContext, ptr %65, i32 0, i32 4
  %67 = getelementptr inbounds nuw %struct.VVCFrameParamSets, ptr %66, i32 0, i32 1
  %68 = load ptr, ptr %67, align 8, !tbaa !79
  %69 = getelementptr inbounds nuw %struct.VVCPPS, ptr %68, i32 0, i32 4
  %70 = load i16, ptr %69, align 8, !tbaa !83
  %71 = zext i16 %70 to i32
  %72 = load i32, ptr %6, align 4, !tbaa !9
  %73 = sub nsw i32 %71, %72
  br label %74

74:                                               ; preds = %64, %62
  %75 = phi i32 [ %63, %62 ], [ %73, %64 ]
  store i32 %75, ptr %11, align 4, !tbaa !9
  call void @llvm.lifetime.start.p0(i64 8, ptr %12) #7
  %76 = load ptr, ptr %8, align 8, !tbaa !21
  %77 = getelementptr inbounds nuw %struct.VVCFrameContext, ptr %76, i32 0, i32 2
  %78 = load ptr, ptr %77, align 8, !tbaa !77
  %79 = getelementptr inbounds nuw %struct.AVFrame, ptr %78, i32 0, i32 0
  %80 = getelementptr inbounds [8 x ptr], ptr %79, i64 0, i64 0
  %81 = load ptr, ptr %80, align 8, !tbaa !84
  %82 = load i32, ptr %6, align 4, !tbaa !9
  %83 = load ptr, ptr %8, align 8, !tbaa !21
  %84 = getelementptr inbounds nuw %struct.VVCFrameContext, ptr %83, i32 0, i32 4
  %85 = getelementptr inbounds nuw %struct.VVCFrameParamSets, ptr %84, i32 0, i32 0
  %86 = load ptr, ptr %85, align 8, !tbaa !22
  %87 = getelementptr inbounds nuw %struct.VVCSPS, ptr %86, i32 0, i32 2
  %88 = getelementptr inbounds [3 x i8], ptr %87, i64 0, i64 0
  %89 = load i8, ptr %88, align 1, !tbaa !76
  %90 = zext i8 %89 to i32
  %91 = ashr i32 %82, %90
  %92 = load ptr, ptr %8, align 8, !tbaa !21
  %93 = getelementptr inbounds nuw %struct.VVCFrameContext, ptr %92, i32 0, i32 2
  %94 = load ptr, ptr %93, align 8, !tbaa !77
  %95 = getelementptr inbounds nuw %struct.AVFrame, ptr %94, i32 0, i32 1
  %96 = getelementptr inbounds [8 x i32], ptr %95, i64 0, i64 0
  %97 = load i32, ptr %96, align 8, !tbaa !9
  %98 = mul nsw i32 %91, %97
  %99 = load i32, ptr %5, align 4, !tbaa !9
  %100 = load ptr, ptr %8, align 8, !tbaa !21
  %101 = getelementptr inbounds nuw %struct.VVCFrameContext, ptr %100, i32 0, i32 4
  %102 = getelementptr inbounds nuw %struct.VVCFrameParamSets, ptr %101, i32 0, i32 0
  %103 = load ptr, ptr %102, align 8, !tbaa !22
  %104 = getelementptr inbounds nuw %struct.VVCSPS, ptr %103, i32 0, i32 1
  %105 = getelementptr inbounds [3 x i8], ptr %104, i64 0, i64 0
  %106 = load i8, ptr %105, align 8, !tbaa !76
  %107 = zext i8 %106 to i32
  %108 = ashr i32 %99, %107
  %109 = load ptr, ptr %8, align 8, !tbaa !21
  %110 = getelementptr inbounds nuw %struct.VVCFrameContext, ptr %109, i32 0, i32 4
  %111 = getelementptr inbounds nuw %struct.VVCFrameParamSets, ptr %110, i32 0, i32 0
  %112 = load ptr, ptr %111, align 8, !tbaa !22
  %113 = getelementptr inbounds nuw %struct.VVCSPS, ptr %112, i32 0, i32 4
  %114 = load i8, ptr %113, align 4, !tbaa !85
  %115 = zext i8 %114 to i32
  %116 = shl i32 %108, %115
  %117 = add nsw i32 %98, %116
  %118 = sext i32 %117 to i64
  %119 = getelementptr inbounds i8, ptr %81, i64 %118
  store ptr %119, ptr %12, align 8, !tbaa !84
  %120 = load ptr, ptr %7, align 8, !tbaa !201
  %121 = getelementptr inbounds nuw %struct.SliceContext, ptr %120, i32 0, i32 1
  %122 = getelementptr inbounds nuw %struct.VVCSH, ptr %121, i32 0, i32 0
  %123 = load ptr, ptr %122, align 8, !tbaa !107
  %124 = getelementptr inbounds nuw %struct.H266RawSliceHeader, ptr %123, i32 0, i32 19
  %125 = load i8, ptr %124, align 4, !tbaa !202
  %126 = icmp ne i8 %125, 0
  br i1 %126, label %127, label %147

127:                                              ; preds = %74
  %128 = load ptr, ptr %8, align 8, !tbaa !21
  %129 = getelementptr inbounds nuw %struct.VVCFrameContext, ptr %128, i32 0, i32 9
  %130 = getelementptr inbounds nuw %struct.VVCDSPContext, ptr %129, i32 0, i32 3
  %131 = getelementptr inbounds nuw %struct.VVCLMCSDSPContext, ptr %130, i32 0, i32 0
  %132 = load ptr, ptr %131, align 8, !tbaa !203
  %133 = load ptr, ptr %12, align 8, !tbaa !84
  %134 = load ptr, ptr %8, align 8, !tbaa !21
  %135 = getelementptr inbounds nuw %struct.VVCFrameContext, ptr %134, i32 0, i32 2
  %136 = load ptr, ptr %135, align 8, !tbaa !77
  %137 = getelementptr inbounds nuw %struct.AVFrame, ptr %136, i32 0, i32 1
  %138 = getelementptr inbounds [8 x i32], ptr %137, i64 0, i64 0
  %139 = load i32, ptr %138, align 8, !tbaa !9
  %140 = sext i32 %139 to i64
  %141 = load i32, ptr %10, align 4, !tbaa !9
  %142 = load i32, ptr %11, align 4, !tbaa !9
  %143 = load ptr, ptr %8, align 8, !tbaa !21
  %144 = getelementptr inbounds nuw %struct.VVCFrameContext, ptr %143, i32 0, i32 4
  %145 = getelementptr inbounds nuw %struct.VVCFrameParamSets, ptr %144, i32 0, i32 4
  %146 = getelementptr inbounds nuw %struct.VVCLMCS, ptr %145, i32 0, i32 3
  call void %132(ptr noundef %133, i64 noundef %140, i32 noundef %141, i32 noundef %142, ptr noundef %146)
  br label %147

147:                                              ; preds = %127, %74
  call void @llvm.lifetime.end.p0(i64 8, ptr %12) #7
  call void @llvm.lifetime.end.p0(i64 4, ptr %11) #7
  call void @llvm.lifetime.end.p0(i64 4, ptr %10) #7
  call void @llvm.lifetime.end.p0(i64 4, ptr %9) #7
  call void @llvm.lifetime.end.p0(i64 8, ptr %8) #7
  call void @llvm.lifetime.end.p0(i64 8, ptr %7) #7
  ret void
}