; Function Attrs: nounwind uwtable
define void @ff_vvc_lmcs_filter(ptr noundef readonly captures(none) %0, i32 noundef %1, i32 noundef %2) local_unnamed_addr #1 {
  %4 = getelementptr inbounds nuw i8, ptr %0, i64 4580544
  %5 = load ptr, ptr %4, align 16, !tbaa !92
  %6 = getelementptr inbounds nuw i8, ptr %5, i64 8
  %7 = load ptr, ptr %6, align 8, !tbaa !93
  %8 = getelementptr inbounds nuw i8, ptr %7, i64 1364
  %9 = load i8, ptr %8, align 4, !tbaa !206
  %.not = icmp eq i8 %9, 0
  br i1 %.not, label %54, label %10

10:                                               ; preds = %3
  %11 = getelementptr inbounds nuw i8, ptr %0, i64 4580552
  %12 = load ptr, ptr %11, align 8, !tbaa !4
  %13 = getelementptr inbounds nuw i8, ptr %12, i64 1928
  %14 = load ptr, ptr %13, align 8, !tbaa !18
  %15 = getelementptr inbounds nuw i8, ptr %14, i64 32
  %16 = load i16, ptr %15, align 8, !tbaa !54
  %17 = zext i16 %16 to i32
  %18 = getelementptr inbounds nuw i8, ptr %12, i64 1936
  %19 = load ptr, ptr %18, align 8, !tbaa !61
  %20 = getelementptr inbounds nuw i8, ptr %19, i64 32
  %21 = load i16, ptr %20, align 8, !tbaa !83
  %22 = zext i16 %21 to i32
  %23 = sub nsw i32 %22, %2
  %24 = tail call i32 @llvm.smin.i32(i32 %23, i32 %17)
  %25 = getelementptr inbounds nuw i8, ptr %19, i64 30
  %26 = load i16, ptr %25, align 2, !tbaa !62
  %27 = zext i16 %26 to i32
  %28 = sub nsw i32 %27, %1
  %. = tail call i32 @llvm.smin.i32(i32 %28, i32 %17)
  %29 = getelementptr inbounds nuw i8, ptr %12, i64 1912
  %30 = load ptr, ptr %29, align 8, !tbaa !60
  %31 = load ptr, ptr %30, align 8, !tbaa !65
  %32 = getelementptr inbounds nuw i8, ptr %14, i64 11
  %33 = load i8, ptr %32, align 1, !tbaa !59
  %34 = zext nneg i8 %33 to i32
  %35 = ashr i32 %2, %34
  %36 = getelementptr inbounds nuw i8, ptr %30, i64 64
  %37 = load i32, ptr %36, align 8, !tbaa !82
  %38 = mul nsw i32 %35, %37
  %39 = getelementptr inbounds nuw i8, ptr %14, i64 8
  %40 = load i8, ptr %39, align 8, !tbaa !59
  %41 = zext nneg i8 %40 to i32
  %42 = ashr i32 %1, %41
  %43 = getelementptr inbounds nuw i8, ptr %14, i64 20
  %44 = load i8, ptr %43, align 4, !tbaa !66
  %45 = zext nneg i8 %44 to i32
  %46 = shl i32 %42, %45
  %47 = add nsw i32 %46, %38
  %48 = sext i32 %47 to i64
  %49 = getelementptr inbounds i8, ptr %31, i64 %48
  %50 = getelementptr inbounds nuw i8, ptr %12, i64 21016
  %51 = load ptr, ptr %50, align 8, !tbaa !207
  %52 = sext i32 %37 to i64
  %53 = getelementptr inbounds nuw i8, ptr %12, i64 10666
  tail call void %51(ptr noundef %49, i64 noundef %52, i32 noundef %., i32 noundef %24, ptr noundef nonnull %53) #8
  br label %54

54:                                               ; preds = %10, %3
  ret void
}